target datalayout = "e-m:e-p270:32:32-p271:32:32-p272:64:64-i64:64-i128:128-f80:128-n8:16:32:64-S128"
target triple = "x86_64-pc-linux-gnu"

@.str.4 = private unnamed_addr constant [13 x i8] c"postmaster.c\00", align 1
@.str.40 = private unnamed_addr constant [3 x i8] c"%s\00", align 1
@.str.53 = private unnamed_addr constant [2 x i8] c"w\00", align 1
@.str.144 = private unnamed_addr constant [16 x i8] c"postmaster.opts\00", align 1
@.str.145 = private unnamed_addr constant [31 x i8] c"could not create file \22%s\22: %m\00", align 1
@__func__.CreateOptsFile = private unnamed_addr constant [15 x i8] c"CreateOptsFile\00", align 1
@.str.146 = private unnamed_addr constant [6 x i8] c" \22%s\22\00", align 1
@.str.147 = private unnamed_addr constant [2 x i8] c"\0A\00", align 1
@.str.148 = private unnamed_addr constant [30 x i8] c"could not write file \22%s\22: %m\00", align 1

; Function Attrs: nounwind uwtable
define internal zeroext i1 @CreateOptsFile(i32 noundef %0, ptr noundef %1, ptr noundef %2) #2 {
  %4 = alloca i1, align 1
  %5 = alloca i32, align 4
  %6 = alloca ptr, align 8
  %7 = alloca ptr, align 8
  %8 = alloca ptr, align 8
  %9 = alloca i32, align 4
  %10 = alloca i32, align 4
  store i32 %0, ptr %5, align 4
  store ptr %1, ptr %6, align 8
  store ptr %2, ptr %7, align 8
  call void @llvm.lifetime.start.p0(i64 8, ptr %8) #15
  call void @llvm.lifetime.start.p0(i64 4, ptr %9) #15
  %11 = call noalias ptr @fopen(ptr noundef @.str.144, ptr noundef @.str.53)
  store ptr %11, ptr %8, align 8
  %12 = icmp eq ptr %11, null
  br i1 %12, label %13, label %25

13:                                               ; preds = %3
  br label %14

14:                                               ; preds = %13
  br i1 false, label %15, label %17

15:                                               ; preds = %14
  %16 = call zeroext i1 @errstart_cold(i32 noundef 15, ptr noundef null) #16
  br i1 %16, label %19, label %22

17:                                               ; preds = %14
  %18 = call zeroext i1 @errstart(i32 noundef 15, ptr noundef null)
  br i1 %18, label %19, label %22

19:                                               ; preds = %17, %15
  %20 = call i32 @errcode_for_file_access()
  %21 = call i32 (ptr, ...) @errmsg(ptr noundef @.str.145, ptr noundef @.str.144)
  call void @errfinish(ptr noundef @.str.4, i32 noundef 4017, ptr noundef @__func__.CreateOptsFile)
  br label %22

22:                                               ; preds = %19, %17, %15
  br label %23

23:                                               ; preds = %22
  br label %24

24:                                               ; preds = %23
  store i1 false, ptr %4, align 1
  store i32 1, ptr %10, align 4
  br label %63

25:                                               ; preds = %3
  %26 = load ptr, ptr %8, align 8
  %27 = load ptr, ptr %7, align 8
  %28 = call i32 (ptr, ptr, ...) @pg_fprintf(ptr noundef %26, ptr noundef @.str.40, ptr noundef %27)
  store i32 1, ptr %9, align 4
  br label %29

29:                                               ; preds = %41, %25
  %30 = load i32, ptr %9, align 4
  %31 = load i32, ptr %5, align 4
  %32 = icmp slt i32 %30, %31
  br i1 %32, label %33, label %44

33:                                               ; preds = %29
  %34 = load ptr, ptr %8, align 8
  %35 = load ptr, ptr %6, align 8
  %36 = load i32, ptr %9, align 4
  %37 = sext i32 %36 to i64
  %38 = getelementptr inbounds ptr, ptr %35, i64 %37
  %39 = load ptr, ptr %38, align 8
  %40 = call i32 (ptr, ptr, ...) @pg_fprintf(ptr noundef %34, ptr noundef @.str.146, ptr noundef %39)
  br label %41

41:                                               ; preds = %33
  %42 = load i32, ptr %9, align 4
  %43 = add i32 %42, 1
  store i32 %43, ptr %9, align 4
  br label %29, !llvm.loop !12

44:                                               ; preds = %29
  %45 = load ptr, ptr %8, align 8
  %46 = call i32 @fputs(ptr noundef @.str.147, ptr noundef %45)
  %47 = load ptr, ptr %8, align 8
  %48 = call i32 @fclose(ptr noundef %47)
  %49 = icmp ne i32 %48, 0
  br i1 %49, label %50, label %62

50:                                               ; preds = %44
  br label %51

51:                                               ; preds = %50
  br i1 false, label %52, label %54

52:                                               ; preds = %51
  %53 = call zeroext i1 @errstart_cold(i32 noundef 15, ptr noundef null) #16
  br i1 %53, label %56, label %59

54:                                               ; preds = %51
  %55 = call zeroext i1 @errstart(i32 noundef 15, ptr noundef null)
  br i1 %55, label %56, label %59

56:                                               ; preds = %54, %52
  %57 = call i32 @errcode_for_file_access()
  %58 = call i32 (ptr, ...) @errmsg(ptr noundef @.str.148, ptr noundef @.str.144)
  call void @errfinish(ptr noundef @.str.4, i32 noundef 4030, ptr noundef @__func__.CreateOptsFile)
  br label %59

59:                                               ; preds = %56, %54, %52
  br label %60

60:                                               ; preds = %59
  br label %61

61:                                               ; preds = %60
  store i1 false, ptr %4, align 1
  store i32 1, ptr %10, align 4
  br label %63

62:                                               ; preds = %44
  store i1 true, ptr %4, align 1
  store i32 1, ptr %10, align 4
  br label %63

63:                                               ; preds = %62, %61, %24
  call void @llvm.lifetime.end.p0(i64 4, ptr %9) #15
  call void @llvm.lifetime.end.p0(i64 8, ptr %8) #15
  %64 = load i1, ptr %4, align 1
  ret i1 %64
}