; Function Attrs: nounwind uwtable
define internal fastcc noundef zeroext i1 @CreateOptsFile(i32 noundef %0, ptr noundef readonly captures(none) %1) unnamed_addr #2 {
  %3 = tail call noalias ptr @fopen(ptr noundef nonnull @.str.144, ptr noundef nonnull @.str.53)
  %4 = icmp eq ptr %3, null
  br i1 %4, label %5, label %7

5:                                                ; preds = %2
  %6 = tail call zeroext i1 @errstart(i32 noundef 15, ptr noundef null) #18
  br i1 %6, label %.sink.split, label %18

7:                                                ; preds = %2
  %8 = tail call i32 (ptr, ptr, ...) @pg_fprintf(ptr noundef nonnull %3, ptr noundef nonnull @.str.40, ptr noundef nonnull @my_exec_path) #18
  %9 = icmp sgt i32 %0, 1
  br i1 %9, label %.lr.ph.preheader, label %._crit_edge

.lr.ph.preheader:                                 ; preds = %7
  %wide.trip.count = zext nneg i32 %0 to i64
  br label %.lr.ph

.lr.ph:                                           ; preds = %.lr.ph.preheader, %.lr.ph
  %indvars.iv = phi i64 [ 1, %.lr.ph.preheader ], [ %indvars.iv.next, %.lr.ph ]
  %10 = getelementptr inbounds nuw ptr, ptr %1, i64 %indvars.iv
  %11 = load ptr, ptr %10, align 8
  %12 = tail call i32 (ptr, ptr, ...) @pg_fprintf(ptr noundef nonnull %3, ptr noundef nonnull @.str.146, ptr noundef %11) #18
  %indvars.iv.next = add nuw nsw i64 %indvars.iv, 1
  %exitcond.not = icmp eq i64 %indvars.iv.next, %wide.trip.count
  br i1 %exitcond.not, label %._crit_edge, label %.lr.ph, !llvm.loop !11

._crit_edge:                                      ; preds = %.lr.ph, %7
  %fputc = tail call i32 @fputc(i32 10, ptr nonnull %3)
  %13 = tail call i32 @fclose(ptr noundef nonnull %3)
  %.not = icmp eq i32 %13, 0
  br i1 %.not, label %18, label %14

14:                                               ; preds = %._crit_edge
  %15 = tail call zeroext i1 @errstart(i32 noundef 15, ptr noundef null) #18
  br i1 %15, label %.sink.split, label %18

.sink.split:                                      ; preds = %14, %5
  %.str.148.sink = phi ptr [ @.str.145, %5 ], [ @.str.148, %14 ]
  %.sink = phi i32 [ 4017, %5 ], [ 4030, %14 ]
  %16 = tail call i32 @errcode_for_file_access() #18
  %17 = tail call i32 (ptr, ...) @errmsg(ptr noundef nonnull %.str.148.sink, ptr noundef nonnull @.str.144) #18
  tail call void @errfinish(ptr noundef nonnull @.str.4, i32 noundef %.sink, ptr noundef nonnull @__func__.CreateOptsFile) #18
  br label %18

18:                                               ; preds = %.sink.split, %._crit_edge, %14, %5
  %.010 = phi i1 [ false, %5 ], [ false, %14 ], [ true, %._crit_edge ], [ false, %.sink.split ]
  ret i1 %.010
}